; Function Attrs: mustprogress uwtable
define hidden void @_ZN5boost9iostreams6detail20file_descriptor_impl4openEiNS2_5flagsE(ptr nocapture noundef nonnull align 4 dereferenceable(8) %0, i32 noundef %1, i32 noundef %2) local_unnamed_addr #3 align 2 personality ptr @__gxx_personality_v0 {
  %4 = alloca %"class.std::ios_base::failure", align 8
  %5 = alloca %"struct.boost::iostreams::detail::file_descriptor_impl", align 4
  call void @llvm.lifetime.start.p0(i64 8, ptr nonnull %5) #28
  %6 = getelementptr inbounds nuw i8, ptr %5, i64 4
  %7 = load i32, ptr %0, align 4, !tbaa !3
  store i32 %7, ptr %5, align 4, !tbaa !3
  %8 = getelementptr inbounds nuw i8, ptr %0, i64 4
  %9 = load i32, ptr %8, align 4, !tbaa !8
  %10 = shl i32 %9, 1
  %11 = and i32 %10, 2
  store i32 %11, ptr %6, align 4, !tbaa !8
  store i32 %1, ptr %0, align 4, !tbaa !3
  store i32 %2, ptr %8, align 4, !tbaa !8
  %.not.i.i = icmp eq i32 %7, -1
  %.not.i = icmp eq i32 %11, 0
  %or.cond = select i1 %.not.i.i, i1 true, i1 %.not.i
  br i1 %or.cond, label %_ZN5boost9iostreams6detail20file_descriptor_implD2Ev.exit, label %12

12:                                               ; preds = %3
  %13 = invoke i32 @close(i32 noundef %7)
          to label %.noexc unwind label %19

.noexc:                                           ; preds = %12
  %14 = icmp eq i32 %13, -1
  store i32 -1, ptr %5, align 4, !tbaa !3
  store i32 0, ptr %6, align 4, !tbaa !8
  br i1 %14, label %15, label %_ZN5boost9iostreams6detail20file_descriptor_implD2Ev.exit

15:                                               ; preds = %.noexc
  call void @llvm.lifetime.start.p0(i64 32, ptr nonnull %4) #28
  invoke void @_ZN5boost9iostreams6detail14system_failureB5cxx11EPKc(ptr dead_on_unwind nonnull writable sret(%"class.std::ios_base::failure") align 8 %4, ptr noundef nonnull @.str.2)
          to label %.noexc4 unwind label %19

.noexc4:                                          ; preds = %15
  invoke void @_ZN5boost15throw_exceptionINSt8ios_base7failureB5cxx11EEEvRKT_(ptr noundef nonnull align 8 dereferenceable(32) %4) #29
          to label %16 unwind label %17

16:                                               ; preds = %.noexc4
  unreachable

17:                                               ; preds = %.noexc4
  %18 = landingpad { ptr, i32 }
          cleanup
  call void @_ZNSt8ios_base7failureB5cxx11D1Ev(ptr noundef nonnull align 8 dereferenceable(32) %4) #28
  call void @llvm.lifetime.end.p0(i64 32, ptr nonnull %4) #28
  br label %.body

_ZN5boost9iostreams6detail20file_descriptor_implD2Ev.exit: ; preds = %3, %.noexc
  call void @llvm.lifetime.end.p0(i64 8, ptr nonnull %5) #28
  ret void

19:                                               ; preds = %15, %12
  %20 = landingpad { ptr, i32 }
          cleanup
  br label %.body

.body:                                            ; preds = %17, %19
  %eh.lpad-body = phi { ptr, i32 } [ %20, %19 ], [ %18, %17 ]
  call void @_ZN5boost9iostreams6detail20file_descriptor_implD2Ev(ptr noundef nonnull align 4 dereferenceable(8) %5) #28
  call void @llvm.lifetime.end.p0(i64 8, ptr nonnull %5) #28
  resume { ptr, i32 } %eh.lpad-body
}